Archive member included because of file (symbol)

c:/program files (x86)/gnu tools arm embedded/4.8 2013q4/bin/../lib/gcc/arm-none-eabi/4.8.3/../../../../arm-none-eabi/lib/armv7e-m\libg.a(lib_a-memset.o)
                              ..\obj\stm324xg_eval_sdio_sd.o (memset)

Allocating common symbols
Common symbol       size              file

MSC_BOT_Data        0x1000            ..\obj\usbd_msc_bot.o
SCSI_blk_nbr        0x4               ..\obj\usbd_msc_scsi.o
SDIO_CmdInitStructure
                    0x14              ..\obj\stm324xg_eval_sdio_sd.o
SET_TEST_MODE       0x4               ..\obj\usbd_core.o
MSC_BOT_Status      0x1               ..\obj\usbd_msc_bot.o
SCSI_blk_size       0x4               ..\obj\usbd_msc_scsi.o
SCSI_Sense_Head     0x1               ..\obj\usbd_msc_scsi.o
MSC_BOT_cbw         0x20              ..\obj\usbd_msc_bot.o
SCSI_blk_len        0x4               ..\obj\usbd_msc_scsi.o
SDCardInfo          0x58              ..\obj\stm324xg_eval_sdio_sd.o
SDIO_InitStructure  0x18              ..\obj\stm324xg_eval_sdio_sd.o
SDIO_DataInitStructure
                    0x18              ..\obj\stm324xg_eval_sdio_sd.o
SCSI_Sense          0x20              ..\obj\usbd_msc_scsi.o
MSC_BOT_csw         0x10              ..\obj\usbd_msc_bot.o
SCSI_blk_addr       0x4               ..\obj\usbd_msc_scsi.o
USB_OTG_dev         0x5f4             ..\obj\main.o
cdev                0x4               ..\obj\usbd_msc_scsi.o
SCSI_Sense_Tail     0x1               ..\obj\usbd_msc_scsi.o
MSC_BOT_State       0x1               ..\obj\usbd_msc_bot.o
USBD_StrDesc        0x40              ..\obj\usbd_req.o
MSC_BOT_DataLen     0x2               ..\obj\usbd_msc_bot.o

Discarded input sections

 .text          0x00000000        0x0 ..\obj\stm32f4xx_syscfg.o
 .data          0x00000000        0x0 ..\obj\stm32f4xx_syscfg.o
 .bss           0x00000000        0x0 ..\obj\stm32f4xx_syscfg.o
 .text.SYSCFG_DeInit
                0x00000000       0x1c ..\obj\stm32f4xx_syscfg.o
 .text.SYSCFG_MemoryRemapConfig
                0x00000000       0x20 ..\obj\stm32f4xx_syscfg.o
 .text.SYSCFG_EXTILineConfig
                0x00000000       0x7c ..\obj\stm32f4xx_syscfg.o
 .text.SYSCFG_ETH_MediaInterfaceConfig
                0x00000000       0x1c ..\obj\stm32f4xx_syscfg.o
 .text.SYSCFG_CompensationCellCmd
                0x00000000       0x20 ..\obj\stm32f4xx_syscfg.o
 .text.SYSCFG_GetCompensationCellStatus
                0x00000000       0x34 ..\obj\stm32f4xx_syscfg.o
 .debug_info    0x00000000      0x24b ..\obj\stm32f4xx_syscfg.o
 .debug_abbrev  0x00000000      0x131 ..\obj\stm32f4xx_syscfg.o
 .debug_aranges
                0x00000000       0x48 ..\obj\stm32f4xx_syscfg.o
 .debug_ranges  0x00000000       0x38 ..\obj\stm32f4xx_syscfg.o
 .debug_line    0x00000000      0x1af ..\obj\stm32f4xx_syscfg.o
 .debug_str     0x00000000      0x2d1 ..\obj\stm32f4xx_syscfg.o
 .comment       0x00000000       0x71 ..\obj\stm32f4xx_syscfg.o
 .ARM.attributes
                0x00000000       0x33 ..\obj\stm32f4xx_syscfg.o
 .debug_frame   0x00000000       0xbc ..\obj\stm32f4xx_syscfg.o
 .text          0x00000000        0x0 ..\obj\usb_core.o
 .data          0x00000000        0x0 ..\obj\usb_core.o
 .bss           0x00000000        0x0 ..\obj\usb_core.o
 .text.USB_OTG_IsHostMode
                0x00000000       0x24 ..\obj\usb_core.o
 .text.USB_OTG_ReadOtgItr
                0x00000000       0x1c ..\obj\usb_core.o
 .text.USB_OTG_ActiveRemoteWakeup
                0x00000000       0x8c ..\obj\usb_core.o
 .text.USB_OTG_UngateClock
                0x00000000       0x54 ..\obj\usb_core.o
 .text.USB_OTG_StopDevice
                0x00000000       0x80 ..\obj\usb_core.o
 .text.USB_OTG_GetEPStatus
                0x00000000       0xac ..\obj\usb_core.o
 .text.USB_OTG_SetEPStatus
                0x00000000      0x12c ..\obj\usb_core.o
 .text          0x00000000        0x0 ..\obj\stm32f4xx_sdio.o
 .data          0x00000000        0x0 ..\obj\stm32f4xx_sdio.o
 .bss           0x00000000        0x0 ..\obj\stm32f4xx_sdio.o
 .text.SDIO_StructInit
                0x00000000       0x38 ..\obj\stm32f4xx_sdio.o
 .text.SDIO_CmdStructInit
                0x00000000       0x30 ..\obj\stm32f4xx_sdio.o
 .text.SDIO_DataStructInit
                0x00000000       0x38 ..\obj\stm32f4xx_sdio.o
 .text.SDIO_GetDataCounter
                0x00000000       0x18 ..\obj\stm32f4xx_sdio.o
 .text.SDIO_WriteData
                0x00000000       0x20 ..\obj\stm32f4xx_sdio.o
 .text.SDIO_GetFIFOCount
                0x00000000       0x18 ..\obj\stm32f4xx_sdio.o
 .text.SDIO_StartSDIOReadWait
                0x00000000       0x20 ..\obj\stm32f4xx_sdio.o
 .text.SDIO_StopSDIOReadWait
                0x00000000       0x20 ..\obj\stm32f4xx_sdio.o
 .text.SDIO_SetSDIOReadWaitMode
                0x00000000       0x1c ..\obj\stm32f4xx_sdio.o
 .text.SDIO_SetSDIOOperation
                0x00000000       0x20 ..\obj\stm32f4xx_sdio.o
 .text.SDIO_SendSDIOSuspendCmd
                0x00000000       0x20 ..\obj\stm32f4xx_sdio.o
 .text.SDIO_CommandCompletionCmd
                0x00000000       0x20 ..\obj\stm32f4xx_sdio.o
 .text.SDIO_CEATAITCmd
                0x00000000       0x2c ..\obj\stm32f4xx_sdio.o
 .text.SDIO_SendCEATACmd
                0x00000000       0x20 ..\obj\stm32f4xx_sdio.o
 .text          0x00000000        0x0 ..\obj\usbd_usr.o
 .bss           0x00000000        0x0 ..\obj\usbd_usr.o
 .text          0x00000000        0x0 ..\obj\startup_stm32f4xx.o
 .data          0x00000000        0x0 ..\obj\startup_stm32f4xx.o
 .bss           0x00000000        0x0 ..\obj\startup_stm32f4xx.o
 .text          0x00000000        0x0 ..\obj\stm32f4xx_crc.o
 .data          0x00000000        0x0 ..\obj\stm32f4xx_crc.o
 .bss           0x00000000        0x0 ..\obj\stm32f4xx_crc.o
 .text.CRC_ResetDR
                0x00000000       0x18 ..\obj\stm32f4xx_crc.o
 .text.CRC_CalcCRC
                0x00000000       0x24 ..\obj\stm32f4xx_crc.o
 .text.CRC_CalcBlockCRC
                0x00000000       0x44 ..\obj\stm32f4xx_crc.o
 .text.CRC_GetCRC
                0x00000000       0x18 ..\obj\stm32f4xx_crc.o
 .text.CRC_SetIDRegister
                0x00000000       0x20 ..\obj\stm32f4xx_crc.o
 .text.CRC_GetIDRegister
                0x00000000       0x18 ..\obj\stm32f4xx_crc.o
 .debug_info    0x00000000      0x1dc ..\obj\stm32f4xx_crc.o
 .debug_abbrev  0x00000000      0x114 ..\obj\stm32f4xx_crc.o
 .debug_aranges
                0x00000000       0x48 ..\obj\stm32f4xx_crc.o
 .debug_ranges  0x00000000       0x38 ..\obj\stm32f4xx_crc.o
 .debug_line    0x00000000      0x1b4 ..\obj\stm32f4xx_crc.o
 .debug_str     0x00000000      0x21d ..\obj\stm32f4xx_crc.o
 .comment       0x00000000       0x71 ..\obj\stm32f4xx_crc.o
 .ARM.attributes
                0x00000000       0x33 ..\obj\stm32f4xx_crc.o
 .debug_frame   0x00000000       0xac ..\obj\stm32f4xx_crc.o
 .text          0x00000000        0x0 ..\obj\usbd_msc_core.o
 .text          0x00000000        0x0 ..\obj\usbd_core.o
 .bss           0x00000000        0x0 ..\obj\usbd_core.o
 .text          0x00000000        0x0 ..\obj\main.o
 .data          0x00000000        0x0 ..\obj\main.o
 .bss           0x00000000        0x0 ..\obj\main.o
 .text          0x00000000        0x0 ..\obj\stm32f4xx_rcc.o
 .data          0x00000000       0x10 ..\obj\stm32f4xx_rcc.o
 .bss           0x00000000        0x0 ..\obj\stm32f4xx_rcc.o
 .text.RCC_DeInit
                0x00000000       0x50 ..\obj\stm32f4xx_rcc.o
 .text.RCC_HSEConfig
                0x00000000       0x24 ..\obj\stm32f4xx_rcc.o
 .text.RCC_WaitForHSEStartUp
                0x00000000       0x50 ..\obj\stm32f4xx_rcc.o
 .text.RCC_AdjustHSICalibrationValue
                0x00000000       0x3c ..\obj\stm32f4xx_rcc.o
 .text.RCC_HSICmd
                0x00000000       0x20 ..\obj\stm32f4xx_rcc.o
 .text.RCC_LSEConfig
                0x00000000       0x40 ..\obj\stm32f4xx_rcc.o
 .text.RCC_LSICmd
                0x00000000       0x20 ..\obj\stm32f4xx_rcc.o
 .text.RCC_PLLConfig
                0x00000000       0x3c ..\obj\stm32f4xx_rcc.o
 .text.RCC_PLLCmd
                0x00000000       0x20 ..\obj\stm32f4xx_rcc.o
 .text.RCC_PLLI2SConfig
                0x00000000       0x28 ..\obj\stm32f4xx_rcc.o
 .text.RCC_PLLI2SCmd
                0x00000000       0x20 ..\obj\stm32f4xx_rcc.o
 .text.RCC_ClockSecuritySystemCmd
                0x00000000       0x20 ..\obj\stm32f4xx_rcc.o
 .text.RCC_MCO1Config
                0x00000000       0x3c ..\obj\stm32f4xx_rcc.o
 .text.RCC_MCO2Config
                0x00000000       0x3c ..\obj\stm32f4xx_rcc.o
 .text.RCC_SYSCLKConfig
                0x00000000       0x38 ..\obj\stm32f4xx_rcc.o
 .text.RCC_GetSYSCLKSource
                0x00000000       0x20 ..\obj\stm32f4xx_rcc.o
 .text.RCC_HCLKConfig
                0x00000000       0x38 ..\obj\stm32f4xx_rcc.o
 .text.RCC_PCLK1Config
                0x00000000       0x38 ..\obj\stm32f4xx_rcc.o
 .text.RCC_PCLK2Config
                0x00000000       0x38 ..\obj\stm32f4xx_rcc.o
 .text.RCC_GetClocksFreq
                0x00000000      0x154 ..\obj\stm32f4xx_rcc.o
 .text.RCC_RTCCLKConfig
                0x00000000       0x5c ..\obj\stm32f4xx_rcc.o
 .text.RCC_RTCCLKCmd
                0x00000000       0x20 ..\obj\stm32f4xx_rcc.o
 .text.RCC_BackupResetCmd
                0x00000000       0x20 ..\obj\stm32f4xx_rcc.o
 .text.RCC_I2SCLKConfig
                0x00000000       0x1c ..\obj\stm32f4xx_rcc.o
 .text.RCC_AHB3PeriphClockCmd
                0x00000000       0x3c ..\obj\stm32f4xx_rcc.o
 .text.RCC_APB1PeriphClockCmd
                0x00000000       0x3c ..\obj\stm32f4xx_rcc.o
 .text.RCC_AHB1PeriphResetCmd
                0x00000000       0x3c ..\obj\stm32f4xx_rcc.o
 .text.RCC_AHB2PeriphResetCmd
                0x00000000       0x3c ..\obj\stm32f4xx_rcc.o
 .text.RCC_AHB3PeriphResetCmd
                0x00000000       0x3c ..\obj\stm32f4xx_rcc.o
 .text.RCC_APB1PeriphResetCmd
                0x00000000       0x3c ..\obj\stm32f4xx_rcc.o
 .text.RCC_AHB1PeriphClockLPModeCmd
                0x00000000       0x3c ..\obj\stm32f4xx_rcc.o
 .text.RCC_AHB2PeriphClockLPModeCmd
                0x00000000       0x3c ..\obj\stm32f4xx_rcc.o
 .text.RCC_AHB3PeriphClockLPModeCmd
                0x00000000       0x3c ..\obj\stm32f4xx_rcc.o
 .text.RCC_APB1PeriphClockLPModeCmd
                0x00000000       0x3c ..\obj\stm32f4xx_rcc.o
 .text.RCC_APB2PeriphClockLPModeCmd
                0x00000000       0x3c ..\obj\stm32f4xx_rcc.o
 .text.RCC_ITConfig
                0x00000000       0x48 ..\obj\stm32f4xx_rcc.o
 .text.RCC_GetFlagStatus
                0x00000000       0x74 ..\obj\stm32f4xx_rcc.o
 .text.RCC_ClearFlag
                0x00000000       0x1c ..\obj\stm32f4xx_rcc.o
 .text.RCC_GetITStatus
                0x00000000       0x38 ..\obj\stm32f4xx_rcc.o
 .text.RCC_ClearITPendingBit
                0x00000000       0x20 ..\obj\stm32f4xx_rcc.o
 .text          0x00000000        0x0 ..\obj\usbd_storage_msd.o
 .text          0x00000000        0x0 ..\obj\usbd_msc_scsi.o
 .data          0x00000000        0x0 ..\obj\usbd_msc_scsi.o
 .bss           0x00000000        0x0 ..\obj\usbd_msc_scsi.o
 .text          0x00000000        0x0 ..\obj\usbd_desc.o
 .bss           0x00000000        0x0 ..\obj\usbd_desc.o
 .text          0x00000000        0x0 ..\obj\konfiguracja.o
 .data          0x00000000        0x0 ..\obj\konfiguracja.o
 .bss           0x00000000        0x0 ..\obj\konfiguracja.o
 .text.SD_LowLevel_DeInit
                0x00000000       0xa0 ..\obj\konfiguracja.o
 .text          0x00000000        0x0 ..\obj\stm32f4xx_gpio.o
 .data          0x00000000        0x0 ..\obj\stm32f4xx_gpio.o
 .bss           0x00000000        0x0 ..\obj\stm32f4xx_gpio.o
 .text.GPIO_DeInit
                0x00000000      0x120 ..\obj\stm32f4xx_gpio.o
 .text.GPIO_StructInit
                0x00000000       0x34 ..\obj\stm32f4xx_gpio.o
 .text.GPIO_PinLockConfig
                0x00000000       0x44 ..\obj\stm32f4xx_gpio.o
 .text.GPIO_ReadInputData
                0x00000000       0x1c ..\obj\stm32f4xx_gpio.o
 .text.GPIO_ReadOutputDataBit
                0x00000000       0x34 ..\obj\stm32f4xx_gpio.o
 .text.GPIO_ReadOutputData
                0x00000000       0x1c ..\obj\stm32f4xx_gpio.o
 .text.GPIO_SetBits
                0x00000000       0x1c ..\obj\stm32f4xx_gpio.o
 .text.GPIO_ResetBits
                0x00000000       0x1c ..\obj\stm32f4xx_gpio.o
 .text.GPIO_WriteBit
                0x00000000       0x30 ..\obj\stm32f4xx_gpio.o
 .text.GPIO_Write
                0x00000000       0x1c ..\obj\stm32f4xx_gpio.o
 .text.GPIO_ToggleBits
                0x00000000       0x24 ..\obj\stm32f4xx_gpio.o
 .text          0x00000000        0x0 ..\obj\system_stm32f4xx.o
 .data          0x00000000       0x14 ..\obj\system_stm32f4xx.o
 .bss           0x00000000        0x0 ..\obj\system_stm32f4xx.o
 .text.SystemCoreClockUpdate
                0x00000000       0xf8 ..\obj\system_stm32f4xx.o
 .text          0x00000000        0x0 ..\obj\stm32f4xx_dma.o
 .data          0x00000000        0x0 ..\obj\stm32f4xx_dma.o
 .bss           0x00000000        0x0 ..\obj\stm32f4xx_dma.o
 .text.DMA_StructInit
                0x00000000       0x6c ..\obj\stm32f4xx_dma.o
 .text.DMA_PeriphIncOffsetSizeConfig
                0x00000000       0x34 ..\obj\stm32f4xx_dma.o
 .text.DMA_SetCurrDataCounter
                0x00000000       0x1c ..\obj\stm32f4xx_dma.o
 .text.DMA_GetCurrDataCounter
                0x00000000       0x1c ..\obj\stm32f4xx_dma.o
 .text.DMA_DoubleBufferModeConfig
                0x00000000       0x3c ..\obj\stm32f4xx_dma.o
 .text.DMA_DoubleBufferModeCmd
                0x00000000       0x38 ..\obj\stm32f4xx_dma.o
 .text.DMA_MemoryTargetConfig
                0x00000000       0x2c ..\obj\stm32f4xx_dma.o
 .text.DMA_GetCurrentMemoryTarget
                0x00000000       0x30 ..\obj\stm32f4xx_dma.o
 .text.DMA_GetCmdStatus
                0x00000000       0x30 ..\obj\stm32f4xx_dma.o
 .text.DMA_GetFIFOStatus
                0x00000000       0x24 ..\obj\stm32f4xx_dma.o
 .text.DMA_GetFlagStatus
                0x00000000       0x78 ..\obj\stm32f4xx_dma.o
 .text.DMA_GetITStatus
                0x00000000       0xb0 ..\obj\stm32f4xx_dma.o
 .text.DMA_ClearITPendingBit
                0x00000000       0x5c ..\obj\stm32f4xx_dma.o
 .text          0x00000000        0x0 ..\obj\usb_bsp.o
 .data          0x00000000        0x0 ..\obj\usb_bsp.o
 .bss           0x00000000        0x0 ..\obj\usb_bsp.o
 .text          0x00000000        0x0 ..\obj\usbd_req.o
 .data          0x00000000        0x0 ..\obj\usbd_req.o
 .text          0x00000000        0x0 ..\obj\usb_dcd_int.o
 .data          0x00000000        0x0 ..\obj\usb_dcd_int.o
 .bss           0x00000000        0x0 ..\obj\usb_dcd_int.o
 .text          0x00000000        0x0 ..\obj\usbd_msc_data.o
 .data          0x00000000        0x0 ..\obj\usbd_msc_data.o
 .bss           0x00000000        0x0 ..\obj\usbd_msc_data.o
 .text          0x00000000        0x0 ..\obj\stm324xg_eval_sdio_sd.o
 .data          0x00000000        0x0 ..\obj\stm324xg_eval_sdio_sd.o
 .text.SD_DeInit
                0x00000000        0xc ..\obj\stm324xg_eval_sdio_sd.o
 .text.SD_PowerOFF
                0x00000000       0x1c ..\obj\stm324xg_eval_sdio_sd.o
 .text.SD_GetCardStatus
                0x00000000      0x134 ..\obj\stm324xg_eval_sdio_sd.o
 .text.SD_ReadBlock
                0x00000000      0x128 ..\obj\stm324xg_eval_sdio_sd.o
 .text.SD_WriteBlock
                0x00000000      0x128 ..\obj\stm324xg_eval_sdio_sd.o
 .text.SD_GetTransferState
                0x00000000       0x24 ..\obj\stm324xg_eval_sdio_sd.o
 .text.SD_Erase
                0x00000000      0x1c8 ..\obj\stm324xg_eval_sdio_sd.o
 .text.SD_SendSDStatus
                0x00000000      0x20c ..\obj\stm324xg_eval_sdio_sd.o
 .text.SD_ProcessDMAIRQ
                0x00000000       0x30 ..\obj\stm324xg_eval_sdio_sd.o
 .text.IsCardProgramming
                0x00000000      0x1ec ..\obj\stm324xg_eval_sdio_sd.o
 .text.convert_from_bytes_to_power_of_two
                0x00000000       0x30 ..\obj\stm324xg_eval_sdio_sd.o
 .text.SD_HighSpeed
                0x00000000      0x27c ..\obj\stm324xg_eval_sdio_sd.o
 .text          0x00000000        0x0 ..\obj\misc.o
 .data          0x00000000        0x0 ..\obj\misc.o
 .bss           0x00000000        0x0 ..\obj\misc.o
 .text.NVIC_SetVectorTable
                0x00000000       0x2c ..\obj\misc.o
 .text.NVIC_SystemLPConfig
                0x00000000       0x40 ..\obj\misc.o
 .text.SysTick_CLKSourceConfig
                0x00000000       0x38 ..\obj\misc.o
 .text          0x00000000        0x0 ..\obj\usb_dcd.o
 .data          0x00000000        0x0 ..\obj\usb_dcd.o
 .bss           0x00000000        0x0 ..\obj\usb_dcd.o
 .text.DCD_DevConnect
                0x00000000       0x2c ..\obj\usb_dcd.o
 .text.DCD_DevDisconnect
                0x00000000       0x2c ..\obj\usb_dcd.o
 .text.DCD_GetEPStatus
                0x00000000       0x60 ..\obj\usb_dcd.o
 .text.DCD_SetEPStatus
                0x00000000       0x58 ..\obj\usb_dcd.o
 .text          0x00000000        0x0 ..\obj\stm32fxxx_it.o
 .data          0x00000000        0x0 ..\obj\stm32fxxx_it.o
 .bss           0x00000000        0x0 ..\obj\stm32fxxx_it.o
 .text          0x00000000        0x0 ..\obj\usbd_ioreq.o
 .data          0x00000000        0x0 ..\obj\usbd_ioreq.o
 .bss           0x00000000        0x0 ..\obj\usbd_ioreq.o
 .text.USBD_CtlPrepareRx
                0x00000000       0x40 ..\obj\usbd_ioreq.o
 .text          0x00000000        0x0 ..\obj\usbd_msc_bot.o
 .data          0x00000000        0x0 ..\obj\usbd_msc_bot.o
 .bss           0x00000000        0x0 ..\obj\usbd_msc_bot.o
 .text          0x00000000        0x0 c:/program files (x86)/gnu tools arm embedded/4.8 2013q4/bin/../lib/gcc/arm-none-eabi/4.8.3/../../../../arm-none-eabi/lib/armv7e-m\libg.a(lib_a-memset.o)
 .data          0x00000000        0x0 c:/program files (x86)/gnu tools arm embedded/4.8 2013q4/bin/../lib/gcc/arm-none-eabi/4.8.3/../../../../arm-none-eabi/lib/armv7e-m\libg.a(lib_a-memset.o)
 .bss           0x00000000        0x0 c:/program files (x86)/gnu tools arm embedded/4.8 2013q4/bin/../lib/gcc/arm-none-eabi/4.8.3/../../../../arm-none-eabi/lib/armv7e-m\libg.a(lib_a-memset.o)
 .text.memset   0x00000000       0x94 c:/program files (x86)/gnu tools arm embedded/4.8 2013q4/bin/../lib/gcc/arm-none-eabi/4.8.3/../../../../arm-none-eabi/lib/armv7e-m\libg.a(lib_a-memset.o)
 .ARM.attributes
                0x00000000       0x2e c:/program files (x86)/gnu tools arm embedded/4.8 2013q4/bin/../lib/gcc/arm-none-eabi/4.8.3/../../../../arm-none-eabi/lib/armv7e-m\libg.a(lib_a-memset.o)
 .debug_frame   0x00000000       0x2c c:/program files (x86)/gnu tools arm embedded/4.8 2013q4/bin/../lib/gcc/arm-none-eabi/4.8.3/../../../../arm-none-eabi/lib/armv7e-m\libg.a(lib_a-memset.o)

Memory Configuration

Name             Origin             Length             Attributes
rom              0x08000000         0x00100000         xr
ram              0x20000000         0x00020000         xrw
ram1             0x10000000         0x00010000         xrw
*default*        0x00000000         0xffffffff

Linker script and memory map

                0x20020000                _eram = 0x20020000

.text           0x08000000     0x70b8
 *(.isr_vector)
 .isr_vector    0x08000000      0x188 ..\obj\startup_stm32f4xx.o
                0x08000000                g_pfnVectors
 *(.text*)
 .text.USB_OTG_EnableCommonInt
                0x08000188       0x44 ..\obj\usb_core.o
 .text.USB_OTG_CoreReset
                0x080001cc       0x8c ..\obj\usb_core.o
 .text.USB_OTG_WritePacket
                0x08000258       0x70 ..\obj\usb_core.o
                0x08000258                USB_OTG_WritePacket
 .text.USB_OTG_ReadPacket
                0x080002c8       0x58 ..\obj\usb_core.o
                0x080002c8                USB_OTG_ReadPacket
 .text.USB_OTG_SelectCore
                0x08000320      0x174 ..\obj\usb_core.o
                0x08000320                USB_OTG_SelectCore
 .text.USB_OTG_CoreInit
                0x08000494      0x134 ..\obj\usb_core.o
                0x08000494                USB_OTG_CoreInit
 .text.USB_OTG_EnableGlobalInt
                0x080005c8       0x38 ..\obj\usb_core.o
                0x080005c8                USB_OTG_EnableGlobalInt
 .text.USB_OTG_DisableGlobalInt
                0x08000600       0x38 ..\obj\usb_core.o
                0x08000600                USB_OTG_DisableGlobalInt
 .text.USB_OTG_FlushTxFifo
                0x08000638       0x70 ..\obj\usb_core.o
                0x08000638                USB_OTG_FlushTxFifo
 .text.USB_OTG_FlushRxFifo
                0x080006a8       0x5c ..\obj\usb_core.o
                0x080006a8                USB_OTG_FlushRxFifo
 .text.USB_OTG_SetCurrentMode
                0x08000704       0x60 ..\obj\usb_core.o
                0x08000704                USB_OTG_SetCurrentMode
 .text.USB_OTG_GetMode
                0x08000764       0x20 ..\obj\usb_core.o
                0x08000764                USB_OTG_GetMode
 .text.USB_OTG_IsDeviceMode
                0x08000784       0x24 ..\obj\usb_core.o
                0x08000784                USB_OTG_IsDeviceMode
 .text.USB_OTG_ReadCoreItr
                0x080007a8       0x30 ..\obj\usb_core.o
                0x080007a8                USB_OTG_ReadCoreItr
 .text.USB_OTG_InitDevSpeed
                0x080007d8       0x38 ..\obj\usb_core.o
                0x080007d8                USB_OTG_InitDevSpeed
 .text.USB_OTG_CoreInitDev
                0x08000810      0x27c ..\obj\usb_core.o
                0x08000810                USB_OTG_CoreInitDev
 .text.USB_OTG_EnableDevInt
                0x08000a8c       0xa8 ..\obj\usb_core.o
                0x08000a8c                USB_OTG_EnableDevInt
 .text.USB_OTG_GetDeviceSpeed
                0x08000b34       0x48 ..\obj\usb_core.o
                0x08000b34                USB_OTG_GetDeviceSpeed
 .text.USB_OTG_EP0Activate
                0x08000b7c       0x78 ..\obj\usb_core.o
                0x08000b7c                USB_OTG_EP0Activate
 .text.USB_OTG_EPActivate
                0x08000bf4       0xdc ..\obj\usb_core.o
                0x08000bf4                USB_OTG_EPActivate
 .text.USB_OTG_EPDeactivate
                0x08000cd0       0x8c ..\obj\usb_core.o
                0x08000cd0                USB_OTG_EPDeactivate
 .text.USB_OTG_EPStartXfer
                0x08000d5c      0x280 ..\obj\usb_core.o
                0x08000d5c                USB_OTG_EPStartXfer
 .text.USB_OTG_EP0StartXfer
                0x08000fdc      0x1d4 ..\obj\usb_core.o
                0x08000fdc                USB_OTG_EP0StartXfer
 .text.USB_OTG_EPSetStall
                0x080011b0       0x88 ..\obj\usb_core.o
                0x080011b0                USB_OTG_EPSetStall
 .text.USB_OTG_EPClearStall
                0x08001238       0x78 ..\obj\usb_core.o
                0x08001238                USB_OTG_EPClearStall
 .text.USB_OTG_ReadDevAllOutEp_itr
                0x080012b0       0x2c ..\obj\usb_core.o
                0x080012b0                USB_OTG_ReadDevAllOutEp_itr
 .text.USB_OTG_ReadDevOutEP_itr
                0x080012dc       0x38 ..\obj\usb_core.o
                0x080012dc                USB_OTG_ReadDevOutEP_itr
 .text.USB_OTG_ReadDevAllInEPItr
                0x08001314       0x2c ..\obj\usb_core.o
                0x08001314                USB_OTG_ReadDevAllInEPItr
 .text.USB_OTG_EP0_OutStart
                0x08001340       0x70 ..\obj\usb_core.o
                0x08001340                USB_OTG_EP0_OutStart
 .text.SDIO_DeInit
                0x080013b0       0x1c ..\obj\stm32f4xx_sdio.o
                0x080013b0                SDIO_DeInit
 .text.SDIO_Init
                0x080013cc       0x5c ..\obj\stm32f4xx_sdio.o
                0x080013cc                SDIO_Init
 .text.SDIO_ClockCmd
                0x08001428       0x20 ..\obj\stm32f4xx_sdio.o
                0x08001428                SDIO_ClockCmd
 .text.SDIO_SetPowerState
                0x08001448       0x1c ..\obj\stm32f4xx_sdio.o
                0x08001448                SDIO_SetPowerState
 .text.SDIO_GetPowerState
                0x08001464       0x1c ..\obj\stm32f4xx_sdio.o
                0x08001464                SDIO_GetPowerState
 .text.SDIO_SendCommand
                0x08001480       0x58 ..\obj\stm32f4xx_sdio.o
                0x08001480                SDIO_SendCommand
 .text.SDIO_GetCommandResponse
                0x080014d8       0x18 ..\obj\stm32f4xx_sdio.o
                0x080014d8                SDIO_GetCommandResponse
 .text.SDIO_GetResponse
                0x080014f0       0x28 ..\obj\stm32f4xx_sdio.o
                0x080014f0                SDIO_GetResponse
 .text.SDIO_DataConfig
                0x08001518       0x5c ..\obj\stm32f4xx_sdio.o
                0x08001518                SDIO_DataConfig
 .text.SDIO_ReadData
                0x08001574       0x18 ..\obj\stm32f4xx_sdio.o
                0x08001574                SDIO_ReadData
 .text.SDIO_DMACmd
                0x0800158c       0x20 ..\obj\stm32f4xx_sdio.o
                0x0800158c                SDIO_DMACmd
 .text.SDIO_ITConfig
                0x080015ac       0x3c ..\obj\stm32f4xx_sdio.o
                0x080015ac                SDIO_ITConfig
 .text.SDIO_GetFlagStatus
                0x080015e8       0x34 ..\obj\stm32f4xx_sdio.o
                0x080015e8                SDIO_GetFlagStatus
 .text.SDIO_ClearFlag
                0x0800161c       0x1c ..\obj\stm32f4xx_sdio.o
                0x0800161c                SDIO_ClearFlag
 .text.SDIO_GetITStatus
                0x08001638       0x34 ..\obj\stm32f4xx_sdio.o
                0x08001638                SDIO_GetITStatus
 .text.SDIO_ClearITPendingBit
                0x0800166c       0x1c ..\obj\stm32f4xx_sdio.o
                0x0800166c                SDIO_ClearITPendingBit
 .text.USBD_USR_Init
                0x08001688        0xc ..\obj\usbd_usr.o
                0x08001688                USBD_USR_Init
 .text.USBD_USR_DeviceReset
                0x08001694       0x14 ..\obj\usbd_usr.o
                0x08001694                USBD_USR_DeviceReset
 .text.USBD_USR_DeviceConfigured
                0x080016a8        0xc ..\obj\usbd_usr.o
                0x080016a8                USBD_USR_DeviceConfigured
 .text.USBD_USR_DeviceSuspended
                0x080016b4        0xc ..\obj\usbd_usr.o
                0x080016b4                USBD_USR_DeviceSuspended
 .text.USBD_USR_DeviceResumed
                0x080016c0        0xc ..\obj\usbd_usr.o
                0x080016c0                USBD_USR_DeviceResumed
 .text.USBD_USR_DeviceConnected
                0x080016cc        0xc ..\obj\usbd_usr.o
                0x080016cc                USBD_USR_DeviceConnected
 .text.USBD_USR_DeviceDisconnected
                0x080016d8        0xc ..\obj\usbd_usr.o
                0x080016d8                USBD_USR_DeviceDisconnected
 .text.Default_Reset_Handler
                0x080016e4       0x60 ..\obj\startup_stm32f4xx.o
                0x080016e4                Default_Reset_Handler
                0x080016e4                Reset_Handler
 .text.Default_Handler
                0x08001744        0x8 ..\obj\startup_stm32f4xx.o
                0x08001744                RTC_Alarm_IRQHandler
                0x08001744                HASH_RNG_IRQHandler
                0x08001744                EXTI2_IRQHandler
                0x08001744                TIM8_CC_IRQHandler
                0x08001744                TIM1_CC_IRQHandler
                0x08001744                DMA2_Stream5_IRQHandler
                0x08001744                DMA1_Stream5_IRQHandler
                0x08001744                PVD_IRQHandler
                0x08001744                TAMP_STAMP_IRQHandler
                0x08001744                CAN2_RX1_IRQHandler
                0x08001744                EXTI3_IRQHandler
                0x08001744                TIM8_TRG_COM_TIM14_IRQHandler
                0x08001744                TIM1_UP_TIM10_IRQHandler
                0x08001744                TIM8_UP_TIM13_IRQHandler
                0x08001744                I2C3_ER_IRQHandler
                0x08001744                EXTI0_IRQHandler
                0x08001744                I2C2_EV_IRQHandler
                0x08001744                DMA1_Stream2_IRQHandler
                0x08001744                CAN1_RX0_IRQHandler
                0x08001744                FPU_IRQHandler
                0x08001744                OTG_HS_WKUP_IRQHandler
                0x08001744                CAN2_SCE_IRQHandler
                0x08001744                DMA2_Stream2_IRQHandler
                0x08001744                SPI1_IRQHandler
                0x08001744                TIM6_DAC_IRQHandler
                0x08001744                TIM1_BRK_TIM9_IRQHandler
                0x08001744                DCMI_IRQHandler
                0x08001744                CAN2_RX0_IRQHandler
                0x08001744                DMA2_Stream3_IRQHandler
                0x08001744                USART6_IRQHandler
                0x08001744                USART3_IRQHandler
                0x08001744                CRYP_IRQHandler
                0x08001744                CAN1_RX1_IRQHandler
                0x08001744                UART5_IRQHandler
                0x08001744                DMA2_Stream0_IRQHandler
                0x08001744                TIM4_IRQHandler
                0x08001744                I2C1_EV_IRQHandler
                0x08001744                DMA1_Stream6_IRQHandler
                0x08001744                DMA1_Stream1_IRQHandler
                0x08001744                UART4_IRQHandler
                0x08001744                TIM3_IRQHandler
                0x08001744                RCC_IRQHandler
                0x08001744                TIM8_BRK_TIM12_IRQHandler
                0x08001744                EXTI15_10_IRQHandler
                0x08001744                ADC_IRQHandler
                0x08001744                DMA1_Stream7_IRQHandler
                0x08001744                TIM7_IRQHandler
                0x08001744                CAN2_TX_IRQHandler
                0x08001744                TIM5_IRQHandler
                0x08001744                DMA2_Stream7_IRQHandler
                0x08001744                I2C3_EV_IRQHandler
                0x08001744                EXTI9_5_IRQHandler
                0x08001744                RTC_WKUP_IRQHandler
                0x08001744                ETH_WKUP_IRQHandler
                0x08001744                SPI2_IRQHandler
                0x08001744                OTG_HS_EP1_IN_IRQHandler
                0x08001744                DMA1_Stream0_IRQHandler
                0x08001744                CAN1_TX_IRQHandler
                0x08001744                EXTI4_IRQHandler
                0x08001744                FSMC_IRQHandler
                0x08001744                ETH_IRQHandler
                0x08001744                OTG_HS_EP1_OUT_IRQHandler
                0x08001744                WWDG_IRQHandler
                0x08001744                TIM2_IRQHandler
                0x08001744                OTG_FS_WKUP_IRQHandler
                0x08001744                TIM1_TRG_COM_TIM11_IRQHandler
                0x08001744                OTG_HS_IRQHandler
                0x08001744                EXTI1_IRQHandler
                0x08001744                USART2_IRQHandler
                0x08001744                I2C2_ER_IRQHandler
                0x08001744                DMA2_Stream1_IRQHandler
                0x08001744                CAN1_SCE_IRQHandler
                0x08001744                FLASH_IRQHandler
                0x08001744                DMA2_Stream4_IRQHandler
                0x08001744                USART1_IRQHandler
                0x08001744                SPI3_IRQHandler
                0x08001744                DMA1_Stream4_IRQHandler
                0x08001744                I2C1_ER_IRQHandler
                0x08001744                DMA2_Stream6_IRQHandler
                0x08001744                DMA1_Stream3_IRQHandler
 .text.USBD_MSC_Init
                0x0800174c       0x40 ..\obj\usbd_msc_core.o
                0x0800174c                USBD_MSC_Init
 .text.USBD_MSC_DeInit
                0x0800178c       0x2c ..\obj\usbd_msc_core.o
                0x0800178c                USBD_MSC_DeInit
 .text.USBD_MSC_Setup
                0x080017b8      0x164 ..\obj\usbd_msc_core.o
                0x080017b8                USBD_MSC_Setup
 .text.USBD_MSC_DataIn
                0x0800191c       0x20 ..\obj\usbd_msc_core.o
                0x0800191c                USBD_MSC_DataIn
 .text.USBD_MSC_DataOut
                0x0800193c       0x20 ..\obj\usbd_msc_core.o
                0x0800193c                USBD_MSC_DataOut
 .text.USBD_MSC_GetCfgDesc
                0x0800195c       0x24 ..\obj\usbd_msc_core.o
                0x0800195c                USBD_MSC_GetCfgDesc
 .text.USBD_Init
                0x08001980       0x54 ..\obj\usbd_core.o
                0x08001980                USBD_Init
 .text.USBD_DeInit
                0x080019d4       0x18 ..\obj\usbd_core.o
                0x080019d4                USBD_DeInit
 .text.USBD_SetupStage
                0x080019ec       0x90 ..\obj\usbd_core.o
 .text.USBD_DataOutStage
                0x08001a7c       0xd0 ..\obj\usbd_core.o
 .text.USBD_DataInStage
                0x08001b4c      0x11c ..\obj\usbd_core.o
 .text.USBD_RunTestMode
                0x08001c68       0x24 ..\obj\usbd_core.o
 .text.USBD_Reset
                0x08001c8c       0x44 ..\obj\usbd_core.o
 .text.USBD_Resume
                0x08001cd0       0x30 ..\obj\usbd_core.o
 .text.USBD_Suspend
                0x08001d00       0x30 ..\obj\usbd_core.o
 .text.USBD_SOF
                0x08001d30       0x2c ..\obj\usbd_core.o
 .text.USBD_SetCfg
                0x08001d5c       0x30 ..\obj\usbd_core.o
                0x08001d5c                USBD_SetCfg
 .text.USBD_ClrCfg
                0x08001d8c       0x28 ..\obj\usbd_core.o
                0x08001d8c                USBD_ClrCfg
 .text.USBD_IsoINIncomplete
                0x08001db4       0x20 ..\obj\usbd_core.o
 .text.USBD_IsoOUTIncomplete
                0x08001dd4       0x20 ..\obj\usbd_core.o
 .text.USBD_DevConnected
                0x08001df4       0x24 ..\obj\usbd_core.o
 .text.USBD_DevDisconnected
                0x08001e18       0x34 ..\obj\usbd_core.o
 .text.main     0x08001e4c       0x28 ..\obj\main.o
                0x08001e4c                main
 .text.RCC_AHB1PeriphClockCmd
                0x08001e74       0x3c ..\obj\stm32f4xx_rcc.o
                0x08001e74                RCC_AHB1PeriphClockCmd
 .text.RCC_AHB2PeriphClockCmd
                0x08001eb0       0x3c ..\obj\stm32f4xx_rcc.o
                0x08001eb0                RCC_AHB2PeriphClockCmd
 .text.RCC_APB2PeriphClockCmd
                0x08001eec       0x3c ..\obj\stm32f4xx_rcc.o
                0x08001eec                RCC_APB2PeriphClockCmd
 .text.RCC_APB2PeriphResetCmd
                0x08001f28       0x3c ..\obj\stm32f4xx_rcc.o
                0x08001f28                RCC_APB2PeriphResetCmd
 .text.STORAGE_Init
                0x08001f64       0x40 ..\obj\usbd_storage_msd.o
                0x08001f64                STORAGE_Init
 .text.STORAGE_GetCapacity
                0x08001fa4       0x48 ..\obj\usbd_storage_msd.o
                0x08001fa4                STORAGE_GetCapacity
 .text.STORAGE_IsReady
                0x08001fec       0x44 ..\obj\usbd_storage_msd.o
                0x08001fec                STORAGE_IsReady
 .text.STORAGE_IsWriteProtected
                0x08002030       0x1c ..\obj\usbd_storage_msd.o
                0x08002030                STORAGE_IsWriteProtected
 .text.STORAGE_Read
                0x0800204c       0x50 ..\obj\usbd_storage_msd.o
                0x0800204c                STORAGE_Read
 .text.STORAGE_Write
                0x0800209c       0x50 ..\obj\usbd_storage_msd.o
                0x0800209c                STORAGE_Write
 .text.STORAGE_GetMaxLun
                0x080020ec       0x14 ..\obj\usbd_storage_msd.o
                0x080020ec                STORAGE_GetMaxLun
 .text.SCSI_ProcessCmd
                0x08002100      0x254 ..\obj\usbd_msc_scsi.o
                0x08002100                SCSI_ProcessCmd
 .text.SCSI_TestUnitReady
                0x08002354       0x68 ..\obj\usbd_msc_scsi.o
 .text.SCSI_Inquiry
                0x080023bc       0x98 ..\obj\usbd_msc_scsi.o
 .text.SCSI_ReadCapacity10
                0x08002454       0xc0 ..\obj\usbd_msc_scsi.o
 .text.SCSI_ReadFormatCapacity
                0x08002514       0xc4 ..\obj\usbd_msc_scsi.o
 .text.SCSI_ModeSense6
                0x080025d8       0x4c ..\obj\usbd_msc_scsi.o
 .text.SCSI_ModeSense10
                0x08002624       0x4c ..\obj\usbd_msc_scsi.o
 .text.SCSI_RequestSense
                0x08002670       0xc8 ..\obj\usbd_msc_scsi.o
 .text.SCSI_SenseCode
                0x08002738       0x5c ..\obj\usbd_msc_scsi.o
                0x08002738                SCSI_SenseCode
 .text.SCSI_StartStopUnit
                0x08002794       0x28 ..\obj\usbd_msc_scsi.o
 .text.SCSI_Read10
                0x080027bc      0x130 ..\obj\usbd_msc_scsi.o
 .text.SCSI_Write10
                0x080028ec      0x174 ..\obj\usbd_msc_scsi.o
 .text.SCSI_Verify10
                0x08002a60       0x68 ..\obj\usbd_msc_scsi.o
 .text.SCSI_CheckAddressRange
                0x08002ac8       0x40 ..\obj\usbd_msc_scsi.o
 .text.SCSI_ProcessRead
                0x08002b08       0xc4 ..\obj\usbd_msc_scsi.o
 .text.SCSI_ProcessWrite
                0x08002bcc       0xd8 ..\obj\usbd_msc_scsi.o
 .text.USBD_USR_DeviceDescriptor
                0x08002ca4       0x24 ..\obj\usbd_desc.o
                0x08002ca4                USBD_USR_DeviceDescriptor
 .text.USBD_USR_LangIDStrDescriptor
                0x08002cc8       0x24 ..\obj\usbd_desc.o
                0x08002cc8                USBD_USR_LangIDStrDescriptor
 .text.USBD_USR_ProductStrDescriptor
                0x08002cec       0x40 ..\obj\usbd_desc.o
                0x08002cec                USBD_USR_ProductStrDescriptor
 .text.USBD_USR_ManufacturerStrDescriptor
                0x08002d2c       0x28 ..\obj\usbd_desc.o
                0x08002d2c                USBD_USR_ManufacturerStrDescriptor
 .text.USBD_USR_SerialStrDescriptor
                0x08002d54       0x40 ..\obj\usbd_desc.o
                0x08002d54                USBD_USR_SerialStrDescriptor
 .text.USBD_USR_ConfigStrDescriptor
                0x08002d94       0x3c ..\obj\usbd_desc.o
                0x08002d94                USBD_USR_ConfigStrDescriptor
 .text.USBD_USR_InterfaceStrDescriptor
                0x08002dd0       0x3c ..\obj\usbd_desc.o
                0x08002dd0                USBD_USR_InterfaceStrDescriptor
 .text.SD_LowLevel_Init
                0x08002e0c       0xcc ..\obj\konfiguracja.o
                0x08002e0c                SD_LowLevel_Init
 .text.SD_LowLevel_DMA_TxConfig
                0x08002ed8       0xa0 ..\obj\konfiguracja.o
                0x08002ed8                SD_LowLevel_DMA_TxConfig
 .text.SD_LowLevel_DMA_RxConfig
                0x08002f78       0xa0 ..\obj\konfiguracja.o
                0x08002f78                SD_LowLevel_DMA_RxConfig
 .text.GPIO_Init
                0x08003018      0x11c ..\obj\stm32f4xx_gpio.o
                0x08003018                GPIO_Init
 .text.GPIO_ReadInputDataBit
                0x08003134       0x34 ..\obj\stm32f4xx_gpio.o
                0x08003134                GPIO_ReadInputDataBit
 .text.GPIO_PinAFConfig
                0x08003168       0x8c ..\obj\stm32f4xx_gpio.o
                0x08003168                GPIO_PinAFConfig
 .text.SystemInit
                0x080031f4       0x58 ..\obj\system_stm32f4xx.o
                0x080031f4                SystemInit
 .text.SetSysClock
                0x0800324c       0xf4 ..\obj\system_stm32f4xx.o
 .text.DMA_DeInit
                0x08003340      0x1a4 ..\obj\stm32f4xx_dma.o
                0x08003340                DMA_DeInit
 .text.DMA_Init
                0x080034e4       0xac ..\obj\stm32f4xx_dma.o
                0x080034e4                DMA_Init
 .text.DMA_Cmd  0x08003590       0x38 ..\obj\stm32f4xx_dma.o
                0x08003590                DMA_Cmd
 .text.DMA_FlowControllerConfig
                0x080035c8       0x34 ..\obj\stm32f4xx_dma.o
                0x080035c8                DMA_FlowControllerConfig
 .text.DMA_ClearFlag
                0x080035fc       0x5c ..\obj\stm32f4xx_dma.o
                0x080035fc                DMA_ClearFlag
 .text.DMA_ITConfig
                0x08003658       0x74 ..\obj\stm32f4xx_dma.o
                0x08003658                DMA_ITConfig
 .text.USB_OTG_BSP_Init
                0x080036cc       0xb8 ..\obj\usb_bsp.o
                0x080036cc                USB_OTG_BSP_Init
 .text.USB_OTG_BSP_EnableInterrupt
                0x08003784       0x30 ..\obj\usb_bsp.o
                0x08003784                USB_OTG_BSP_EnableInterrupt
 .text.USB_OTG_BSP_uDelay
                0x080037b4       0x34 ..\obj\usb_bsp.o
                0x080037b4                USB_OTG_BSP_uDelay
 .text.USB_OTG_BSP_mDelay
                0x080037e8       0x20 ..\obj\usb_bsp.o
                0x080037e8                USB_OTG_BSP_mDelay
 .text.USBD_StdDevReq
                0x08003808       0xa0 ..\obj\usbd_req.o
                0x08003808                USBD_StdDevReq
 .text.USBD_VendDevReq
                0x080038a8       0x84 ..\obj\usbd_req.o
                0x080038a8                USBD_VendDevReq
 .text.USBD_StdItfReq
                0x0800392c       0x68 ..\obj\usbd_req.o
                0x0800392c                USBD_StdItfReq
 .text.USBD_StdEPReq
                0x08003994      0x1b0 ..\obj\usbd_req.o
                0x08003994                USBD_StdEPReq
 .text.USBD_GetDescriptor
                0x08003b44      0x1d4 ..\obj\usbd_req.o
 .text.USBD_SetAddress
                0x08003d18       0x7c ..\obj\usbd_req.o
 .text.USBD_SetConfig
                0x08003d94       0xf4 ..\obj\usbd_req.o
 .text.USBD_GetConfig
                0x08003e88       0x60 ..\obj\usbd_req.o
 .text.USBD_GetStatus
                0x08003ee8       0x54 ..\obj\usbd_req.o
 .text.USBD_SetFeature
                0x08003f3c       0xd8 ..\obj\usbd_req.o
 .text.USBD_ClrFeature
                0x08004014       0x50 ..\obj\usbd_req.o
 .text.USBD_ParseSetupRequest
                0x08004064       0x8c ..\obj\usbd_req.o
                0x08004064                USBD_ParseSetupRequest
 .text.USBD_CtlError
                0x080040f0       0x28 ..\obj\usbd_req.o
                0x080040f0                USBD_CtlError
 .text.USBD_GetString
                0x08004118       0x7c ..\obj\usbd_req.o
                0x08004118                USBD_GetString
 .text.USBD_GetLen
                0x08004194       0x30 ..\obj\usbd_req.o
 .text.USBD_OTG_ISR_Handler
                0x080041c4      0x190 ..\obj\usb_dcd_int.o
                0x080041c4                USBD_OTG_ISR_Handler
 .text.DCD_SessionRequest_ISR
                0x08004354       0x34 ..\obj\usb_dcd_int.o
 .text.DCD_OTG_ISR
                0x08004388       0x3c ..\obj\usb_dcd_int.o
 .text.DCD_HandleResume_ISR
                0x080043c4       0x80 ..\obj\usb_dcd_int.o
 .text.DCD_HandleUSBSuspend_ISR
                0x08004444       0xbc ..\obj\usb_dcd_int.o
 .text.DCD_HandleInEP_ISR
                0x08004500      0x19c ..\obj\usb_dcd_int.o
 .text.DCD_HandleOutEP_ISR
                0x0800469c      0x150 ..\obj\usb_dcd_int.o
 .text.DCD_HandleSof_ISR
                0x080047ec       0x34 ..\obj\usb_dcd_int.o
 .text.DCD_HandleRxStatusQueueLevel_ISR
                0x08004820      0x104 ..\obj\usb_dcd_int.o
 .text.DCD_WriteEmptyTxFifo
                0x08004924       0xe4 ..\obj\usb_dcd_int.o
 .text.DCD_HandleUsbReset_ISR
                0x08004a08      0x12c ..\obj\usb_dcd_int.o
 .text.DCD_HandleEnumDone_ISR
                0x08004b34       0x78 ..\obj\usb_dcd_int.o
 .text.DCD_IsoINIncomplete_ISR
                0x08004bac       0x34 ..\obj\usb_dcd_int.o
 .text.DCD_IsoOUTIncomplete_ISR
                0x08004be0       0x34 ..\obj\usb_dcd_int.o
 .text.DCD_ReadDevInEP
                0x08004c14       0x50 ..\obj\usb_dcd_int.o
 .text.SD_Init  0x08004c64       0xbc ..\obj\stm324xg_eval_sdio_sd.o
                0x08004c64                SD_Init
 .text.SD_GetStatus
                0x08004d20       0x30 ..\obj\stm324xg_eval_sdio_sd.o
                0x08004d20                SD_GetStatus
 .text.SD_GetState
                0x08004d50       0x40 ..\obj\stm324xg_eval_sdio_sd.o
                0x08004d50                SD_GetState
 .text.SD_Detect
                0x08004d90       0x30 ..\obj\stm324xg_eval_sdio_sd.o
                0x08004d90                SD_Detect
 .text.SD_PowerON
                0x08004dc0      0x22c ..\obj\stm324xg_eval_sdio_sd.o
                0x08004dc0                SD_PowerON
 .text.SD_InitializeCards
                0x08004fec      0x18c ..\obj\stm324xg_eval_sdio_sd.o
                0x08004fec                SD_InitializeCards
 .text.SD_GetCardInfo
                0x08005178      0x5b4 ..\obj\stm324xg_eval_sdio_sd.o
                0x08005178                SD_GetCardInfo
 .text.SD_EnableWideBusOperation
                0x0800572c       0xd8 ..\obj\stm324xg_eval_sdio_sd.o
                0x0800572c                SD_EnableWideBusOperation
 .text.SD_SelectDeselect
                0x08005804       0x4c ..\obj\stm324xg_eval_sdio_sd.o
                0x08005804                SD_SelectDeselect
 .text.SD_ReadMultiBlocks
                0x08005850      0x134 ..\obj\stm324xg_eval_sdio_sd.o
                0x08005850                SD_ReadMultiBlocks
 .text.SD_WaitReadOperation
                0x08005984       0xbc ..\obj\stm324xg_eval_sdio_sd.o
                0x08005984                SD_WaitReadOperation
 .text.SD_WriteMultiBlocks
                0x08005a40      0x1b0 ..\obj\stm324xg_eval_sdio_sd.o
                0x08005a40                SD_WriteMultiBlocks
 .text.SD_WaitWriteOperation
                0x08005bf0       0xbc ..\obj\stm324xg_eval_sdio_sd.o
                0x08005bf0                SD_WaitWriteOperation
 .text.SD_StopTransfer
                0x08005cac       0x48 ..\obj\stm324xg_eval_sdio_sd.o
                0x08005cac                SD_StopTransfer
 .text.SD_SendStatus
                0x08005cf4       0x78 ..\obj\stm324xg_eval_sdio_sd.o
                0x08005cf4                SD_SendStatus
 .text.SD_ProcessIRQSrc
                0x08005d6c       0xc8 ..\obj\stm324xg_eval_sdio_sd.o
                0x08005d6c                SD_ProcessIRQSrc
 .text.CmdError
                0x08005e34       0x4c ..\obj\stm324xg_eval_sdio_sd.o
 .text.CmdResp7Error
                0x08005e80       0x78 ..\obj\stm324xg_eval_sdio_sd.o
 .text.CmdResp1Error
                0x08005ef8      0x1a0 ..\obj\stm324xg_eval_sdio_sd.o
 .text.CmdResp3Error
                0x08006098       0x50 ..\obj\stm324xg_eval_sdio_sd.o
 .text.CmdResp2Error
                0x080060e8       0x68 ..\obj\stm324xg_eval_sdio_sd.o
 .text.CmdResp6Error
                0x08006150       0xcc ..\obj\stm324xg_eval_sdio_sd.o
 .text.SDEnWideBus
                0x0800621c      0x180 ..\obj\stm324xg_eval_sdio_sd.o
 .text.FindSCR  0x0800639c      0x204 ..\obj\stm324xg_eval_sdio_sd.o
 .text.NVIC_PriorityGroupConfig
                0x080065a0       0x24 ..\obj\misc.o
                0x080065a0                NVIC_PriorityGroupConfig
 .text.NVIC_Init
                0x080065c4       0xbc ..\obj\misc.o
                0x080065c4                NVIC_Init
 .text.DCD_Init
                0x08006680      0x104 ..\obj\usb_dcd.o
                0x08006680                DCD_Init
 .text.DCD_EP_Open
                0x08006784       0xa0 ..\obj\usb_dcd.o
                0x08006784                DCD_EP_Open
 .text.DCD_EP_Close
                0x08006824       0x74 ..\obj\usb_dcd.o
                0x08006824                DCD_EP_Close
 .text.DCD_EP_PrepareRx
                0x08006898       0x80 ..\obj\usb_dcd.o
                0x08006898                DCD_EP_PrepareRx
 .text.DCD_EP_Tx
                0x08006918       0x78 ..\obj\usb_dcd.o
                0x08006918                DCD_EP_Tx
 .text.DCD_EP_Stall
                0x08006990       0x78 ..\obj\usb_dcd.o
                0x08006990                DCD_EP_Stall
 .text.DCD_EP_ClrStall
                0x08006a08       0x78 ..\obj\usb_dcd.o
                0x08006a08                DCD_EP_ClrStall
 .text.DCD_EP_Flush
                0x08006a80       0x34 ..\obj\usb_dcd.o
                0x08006a80                DCD_EP_Flush
 .text.DCD_EP_SetAddress
                0x08006ab4       0x3c ..\obj\usb_dcd.o
                0x08006ab4                DCD_EP_SetAddress
 .text.NMI_Handler
                0x08006af0        0xc ..\obj\stm32fxxx_it.o
                0x08006af0                NMI_Handler
 .text.HardFault_Handler
                0x08006afc        0x8 ..\obj\stm32fxxx_it.o
                0x08006afc                HardFault_Handler
 .text.MemManage_Handler
                0x08006b04        0x8 ..\obj\stm32fxxx_it.o
                0x08006b04                MemManage_Handler
 .text.BusFault_Handler
                0x08006b0c        0x8 ..\obj\stm32fxxx_it.o
                0x08006b0c                BusFault_Handler
 .text.UsageFault_Handler
                0x08006b14        0x8 ..\obj\stm32fxxx_it.o
                0x08006b14                UsageFault_Handler
 .text.SVC_Handler
                0x08006b1c        0xc ..\obj\stm32fxxx_it.o
                0x08006b1c                SVC_Handler
 .text.DebugMon_Handler
                0x08006b28        0xc ..\obj\stm32fxxx_it.o
                0x08006b28                DebugMon_Handler
 .text.PendSV_Handler
                0x08006b34        0xc ..\obj\stm32fxxx_it.o
                0x08006b34                PendSV_Handler
 .text.SysTick_Handler
                0x08006b40        0xc ..\obj\stm32fxxx_it.o
                0x08006b40                SysTick_Handler
 .text.OTG_FS_IRQHandler
                0x08006b4c       0x10 ..\obj\stm32fxxx_it.o
                0x08006b4c                OTG_FS_IRQHandler
 .text.SDIO_IRQHandler
                0x08006b5c        0xc ..\obj\stm32fxxx_it.o
                0x08006b5c                SDIO_IRQHandler
 .text.USBD_CtlSendData
                0x08006b68       0x40 ..\obj\usbd_ioreq.o
                0x08006b68                USBD_CtlSendData
 .text.USBD_CtlContinueSendData
                0x08006ba8       0x28 ..\obj\usbd_ioreq.o
                0x08006ba8                USBD_CtlContinueSendData
 .text.USBD_CtlContinueRx
                0x08006bd0       0x28 ..\obj\usbd_ioreq.o
                0x08006bd0                USBD_CtlContinueRx
 .text.USBD_CtlSendStatus
                0x08006bf8       0x30 ..\obj\usbd_ioreq.o
                0x08006bf8                USBD_CtlSendStatus
 .text.USBD_CtlReceiveStatus
                0x08006c28       0x30 ..\obj\usbd_ioreq.o
                0x08006c28                USBD_CtlReceiveStatus
 .text.USBD_GetRxCount
                0x08006c58       0x30 ..\obj\usbd_ioreq.o
                0x08006c58                USBD_GetRxCount
 .text.MSC_BOT_Init
                0x08006c88       0x50 ..\obj\usbd_msc_bot.o
                0x08006c88                MSC_BOT_Init
 .text.MSC_BOT_Reset
                0x08006cd8       0x34 ..\obj\usbd_msc_bot.o
                0x08006cd8                MSC_BOT_Reset
 .text.MSC_BOT_DeInit
                0x08006d0c       0x1c ..\obj\usbd_msc_bot.o
                0x08006d0c                MSC_BOT_DeInit
 .text.MSC_BOT_DataIn
                0x08006d28       0x5c ..\obj\usbd_msc_bot.o
                0x08006d28                MSC_BOT_DataIn
 .text.MSC_BOT_DataOut
                0x08006d84       0x54 ..\obj\usbd_msc_bot.o
                0x08006d84                MSC_BOT_DataOut
 .text.MSC_BOT_CBW_Decode
                0x08006dd8       0xe8 ..\obj\usbd_msc_bot.o
 .text.MSC_BOT_SendData
                0x08006ec0       0x54 ..\obj\usbd_msc_bot.o
 .text.MSC_BOT_SendCSW
                0x08006f14       0x4c ..\obj\usbd_msc_bot.o
                0x08006f14                MSC_BOT_SendCSW
 .text.MSC_BOT_Abort
                0x08006f60       0x54 ..\obj\usbd_msc_bot.o
 .text.MSC_BOT_CplClrFeature
                0x08006fb4       0x48 ..\obj\usbd_msc_bot.o
                0x08006fb4                MSC_BOT_CplClrFeature
 *(.init)
 *(.fini)
 *crtbegin.o(.ctors)
 *crtbegin?.o(.ctors)
 *(EXCLUDE_FILE(*crtend.o *crtend?.o) .ctors)
 *(SORT(.ctors.*))
 *(.ctors)
 *crtbegin.o(.dtors)
 *crtbegin?.o(.dtors)
 *(EXCLUDE_FILE(*crtend.o *crtend?.o) .dtors)
 *(SORT(.dtors.*))
 *(.dtors)
 *(.rodata*)
 .rodata        0x08006ffc       0x24 ..\obj\usbd_storage_msd.o
                0x08006ffc                STORAGE_Inquirydata
 .rodata        0x08007020       0x80 ..\obj\usbd_desc.o
 .rodata        0x080070a0       0x18 ..\obj\usbd_msc_data.o
                0x080070a0                MSC_Page00_Inquiry_Data
                0x080070a8                MSC_Mode_Sense6_data
                0x080070b0                MSC_Mode_Sense10_data
 *(.eh_fram e*)

.glue_7         0x080070b8        0x0
 .glue_7        0x00000000        0x0 linker stubs

.glue_7t        0x080070b8        0x0
 .glue_7t       0x00000000        0x0 linker stubs

.vfp11_veneer   0x080070b8        0x0
 .vfp11_veneer  0x00000000        0x0 linker stubs

.v4_bx          0x080070b8        0x0
 .v4_bx         0x00000000        0x0 linker stubs

.iplt           0x080070b8        0x0
 .iplt          0x00000000        0x0 ..\obj\stm32f4xx_syscfg.o

.rel.dyn        0x080070b8        0x0
 .rel.iplt      0x00000000        0x0 ..\obj\stm32f4xx_syscfg.o

.ARM.extab
 *(.ARM.extab* .gnu.linkonce.armextab.*)
                0x080070b8                __exidx_start = .

.ARM.exidx
 *(.ARM.exidx* .gnu.linkonce.armexidx.*)
                0x080070b8                __exidx_end = .
                0x080070b8                __etext = .
                0x080070b8                _sidata = __etext

.data           0x20000000      0x108 load address 0x080070b8
                0x20000000                __data_start__ = .
                0x20000000                _sdata = __data_start__
 *(vtable)
 *(.data*)
 .data          0x20000000       0x1c ..\obj\usbd_usr.o
                0x20000000                USR_cb
 .data          0x2000001c       0x4c ..\obj\usbd_msc_core.o
                0x2000001c                USBD_MSC_CfgDesc
                0x2000003c                USBD_MSC_cb
 .data          0x20000068       0x30 ..\obj\usbd_core.o
                0x20000068                USBD_DCD_INT_cb
                0x20000094                USBD_DCD_INT_fops
 .data          0x20000098       0x24 ..\obj\usbd_storage_msd.o
                0x20000098                USBD_MICRO_SDIO_fops
                0x200000b8                USBD_STORAGE_fops
 .data          0x200000bc       0x4c ..\obj\usbd_desc.o
                0x200000bc                USR_desc
                0x200000e4                USBD_DeviceDesc
                0x200000f8                USBD_DeviceQualifierDesc
                0x20000104                USBD_LangIDDesc
                0x20000108                . = ALIGN (0x4)
                0x20000108                PROVIDE (__preinit_array_start, .)
 *(.preinit_array)
                0x20000108                PROVIDE (__preinit_array_end, .)
                0x20000108                . = ALIGN (0x4)
                0x20000108                PROVIDE (__init_array_start, .)
 *(SORT(.init_array.*))
 *(.init_array)
                0x20000108                PROVIDE (__init_array_end, .)
                0x20000108                . = ALIGN (0x4)
                0x20000108                PROVIDE (__fini_array_start, .)
 *(SORT(.fini_array.*))
 *(.fini_array)
                0x20000108                PROVIDE (__fini_array_end, .)
 *(.jcr*)
                0x20000108                . = ALIGN (0x4)
                0x20000108                __data_end__ = .
                0x20000108                _edata = __data_end__

.igot.plt       0x20000108        0x0 load address 0x080071c0
 .igot.plt      0x00000000        0x0 ..\obj\stm32f4xx_syscfg.o

.bss            0x20000108     0x17b0 load address 0x080071c0
                0x20000108                . = ALIGN (0x4)
                0x20000108                __bss_start__ = .
                0x20000108                _sbss = __bss_start__
 *(.bss*)
 .bss           0x20000108        0x2 ..\obj\usbd_msc_core.o
 *fill*         0x2000010a        0x2 
 .bss           0x2000010c        0x8 ..\obj\usbd_storage_msd.o
                0x2000010c                count
 .bss           0x20000114       0x10 ..\obj\usbd_req.o
                0x20000114                USBD_ep_status
                0x20000118                USBD_default_cfg
                0x2000011c                USBD_cfg_status
 .bss           0x20000124       0x48 ..\obj\stm324xg_eval_sdio_sd.o
                0x2000015c                StopCondition
                0x20000160                TransferError
                0x20000164                TransferEnd
                0x20000168                DMAEndOfTransfer
 *(COMMON)
 COMMON         0x2000016c        0x4 ..\obj\usbd_core.o
                0x2000016c                SET_TEST_MODE
 COMMON         0x20000170      0x5f4 ..\obj\main.o
                0x20000170                USB_OTG_dev
 COMMON         0x20000764       0x39 ..\obj\usbd_msc_scsi.o
                0x20000764                SCSI_blk_nbr
                0x20000768                SCSI_blk_size
                0x2000076c                SCSI_Sense_Head
                0x20000770                SCSI_blk_len
                0x20000774                SCSI_Sense
                0x20000794                SCSI_blk_addr
                0x20000798                cdev
                0x2000079c                SCSI_Sense_Tail
 *fill*         0x2000079d        0x3 
 COMMON         0x200007a0       0x40 ..\obj\usbd_req.o
                0x200007a0                USBD_StrDesc
 COMMON         0x200007e0       0xa0 ..\obj\stm324xg_eval_sdio_sd.o
                0x200007e0                SDIO_CmdInitStructure
                0x200007f8                SDCardInfo
                0x20000850                SDIO_InitStructure
                0x20000868                SDIO_DataInitStructure
 COMMON         0x20000880     0x1038 ..\obj\usbd_msc_bot.o
                0x20000880                MSC_BOT_Data
                0x20001880                MSC_BOT_Status
                0x20001884                MSC_BOT_cbw
                0x200018a4                MSC_BOT_csw
                0x200018b4                MSC_BOT_State
                0x200018b6                MSC_BOT_DataLen
                0x200018b8                . = ALIGN (0x4)
                0x200018b8                __bss_end__ = .
                0x200018b8                _ebss = __bss_end__

.heap           0x200018b8        0x0
                0x200018b8                __end__ = .
                0x200018b8                _end = __end__
                0x200018b8                end = __end__
 *(.heap*)
                0x200018b8                __HeapLimit = .

.co_stack       0x200018b8      0x800 load address 0x08008970
                0x200018b8                . = ALIGN (0x8)
 *(.co_stack .co_stack.*)
 .co_stack      0x200018b8      0x800 ..\obj\startup_stm32f4xx.o
                0x200018b8                pulStack
                0x20020000                __StackTop = (ORIGIN (ram) + 0x20000)
                0x2001f800                __StackLimit = (__StackTop - SIZEOF (.co_stack))
                0x20020000                PROVIDE (__stack, __StackTop)
                0x00000001                ASSERT ((__StackLimit >= __HeapLimit), region ram  overflowed with stack)
LOAD ..\obj\stm32f4xx_syscfg.o
LOAD ..\obj\usb_core.o
LOAD ..\obj\stm32f4xx_sdio.o
LOAD ..\obj\usbd_usr.o
LOAD ..\obj\startup_stm32f4xx.o
LOAD ..\obj\stm32f4xx_crc.o
LOAD ..\obj\usbd_msc_core.o
LOAD ..\obj\usbd_core.o
LOAD ..\obj\main.o
LOAD ..\obj\stm32f4xx_rcc.o
LOAD ..\obj\usbd_storage_msd.o
LOAD ..\obj\usbd_msc_scsi.o
LOAD ..\obj\usbd_desc.o
LOAD ..\obj\konfiguracja.o
LOAD ..\obj\stm32f4xx_gpio.o
LOAD ..\obj\system_stm32f4xx.o
LOAD ..\obj\stm32f4xx_dma.o
LOAD ..\obj\usb_bsp.o
LOAD ..\obj\usbd_req.o
LOAD ..\obj\usb_dcd_int.o
LOAD ..\obj\usbd_msc_data.o
LOAD ..\obj\stm324xg_eval_sdio_sd.o
LOAD ..\obj\misc.o
LOAD ..\obj\usb_dcd.o
LOAD ..\obj\stm32fxxx_it.o
LOAD ..\obj\usbd_ioreq.o
LOAD ..\obj\usbd_msc_bot.o
START GROUP
LOAD c:/program files (x86)/gnu tools arm embedded/4.8 2013q4/bin/../lib/gcc/arm-none-eabi/4.8.3/armv7e-m\libgcc.a
LOAD c:/program files (x86)/gnu tools arm embedded/4.8 2013q4/bin/../lib/gcc/arm-none-eabi/4.8.3/../../../../arm-none-eabi/lib/armv7e-m\libg.a
LOAD c:/program files (x86)/gnu tools arm embedded/4.8 2013q4/bin/../lib/gcc/arm-none-eabi/4.8.3/../../../../arm-none-eabi/lib/armv7e-m\libc.a
END GROUP
OUTPUT(CzytnikSD.elf elf32-littlearm)

.debug_info     0x00000000    0x1213f
 .debug_info    0x00000000     0x247f ..\obj\usb_core.o
 .debug_info    0x0000247f      0x7d4 ..\obj\stm32f4xx_sdio.o
 .debug_info    0x00002c53      0x1cb ..\obj\usbd_usr.o
 .debug_info    0x00002e1e      0x102 ..\obj\startup_stm32f4xx.o
 .debug_info    0x00002f20      0x4db ..\obj\usbd_msc_core.o
 .debug_info    0x000033fb     0x1032 ..\obj\usbd_core.o
 .debug_info    0x0000442d      0xb19 ..\obj\main.o
 .debug_info    0x00004f46      0xc21 ..\obj\stm32f4xx_rcc.o
 .debug_info    0x00005b67      0x936 ..\obj\usbd_storage_msd.o
 .debug_info    0x0000649d     0x123c ..\obj\usbd_msc_scsi.o
 .debug_info    0x000076d9      0x371 ..\obj\usbd_desc.o
 .debug_info    0x00007a4a      0x466 ..\obj\konfiguracja.o
 .debug_info    0x00007eb0      0x5d6 ..\obj\stm32f4xx_gpio.o
 .debug_info    0x00008486      0x566 ..\obj\system_stm32f4xx.o
 .debug_info    0x000089ec      0x718 ..\obj\stm32f4xx_dma.o
 .debug_info    0x00009104      0xfc7 ..\obj\usb_bsp.o
 .debug_info    0x0000a0cb     0x103c ..\obj\usbd_req.o
 .debug_info    0x0000b107     0x1ee9 ..\obj\usb_dcd_int.o
 .debug_info    0x0000cff0       0xfb ..\obj\usbd_msc_data.o
 .debug_info    0x0000d0eb     0x13d8 ..\obj\stm324xg_eval_sdio_sd.o
 .debug_info    0x0000e4c3      0x51c ..\obj\misc.o
 .debug_info    0x0000e9df     0x103b ..\obj\usb_dcd.o
 .debug_info    0x0000fa1a      0xb83 ..\obj\stm32fxxx_it.o
 .debug_info    0x0001059d      0xcd3 ..\obj\usbd_ioreq.o
 .debug_info    0x00011270      0xecf ..\obj\usbd_msc_bot.o

.debug_abbrev   0x00000000     0x2a94
 .debug_abbrev  0x00000000      0x2e7 ..\obj\usb_core.o
 .debug_abbrev  0x000002e7      0x177 ..\obj\stm32f4xx_sdio.o
 .debug_abbrev  0x0000045e       0xdf ..\obj\usbd_usr.o
 .debug_abbrev  0x0000053d       0xd1 ..\obj\startup_stm32f4xx.o
 .debug_abbrev  0x0000060e      0x154 ..\obj\usbd_msc_core.o
 .debug_abbrev  0x00000762      0x275 ..\obj\usbd_core.o
 .debug_abbrev  0x000009d7      0x186 ..\obj\main.o
 .debug_abbrev  0x00000b5d      0x1e3 ..\obj\stm32f4xx_rcc.o
 .debug_abbrev  0x00000d40      0x1de ..\obj\usbd_storage_msd.o
 .debug_abbrev  0x00000f1e      0x2a8 ..\obj\usbd_msc_scsi.o
 .debug_abbrev  0x000011c6      0x12c ..\obj\usbd_desc.o
 .debug_abbrev  0x000012f2      0x117 ..\obj\konfiguracja.o
 .debug_abbrev  0x00001409      0x1a3 ..\obj\stm32f4xx_gpio.o
 .debug_abbrev  0x000015ac      0x136 ..\obj\system_stm32f4xx.o
 .debug_abbrev  0x000016e2      0x155 ..\obj\stm32f4xx_dma.o
 .debug_abbrev  0x00001837      0x211 ..\obj\usb_bsp.o
 .debug_abbrev  0x00001a48      0x2c0 ..\obj\usbd_req.o
 .debug_abbrev  0x00001d08      0x25b ..\obj\usb_dcd_int.o
 .debug_abbrev  0x00001f63       0x73 ..\obj\usbd_msc_data.o
 .debug_abbrev  0x00001fd6      0x1e9 ..\obj\stm324xg_eval_sdio_sd.o
 .debug_abbrev  0x000021bf      0x145 ..\obj\misc.o
 .debug_abbrev  0x00002304      0x259 ..\obj\usb_dcd.o
 .debug_abbrev  0x0000255d      0x175 ..\obj\stm32fxxx_it.o
 .debug_abbrev  0x000026d2      0x1af ..\obj\usbd_ioreq.o
 .debug_abbrev  0x00002881      0x213 ..\obj\usbd_msc_bot.o

.debug_aranges  0x00000000      0xc98
 .debug_aranges
                0x00000000      0x138 ..\obj\usb_core.o
 .debug_aranges
                0x00000138      0x108 ..\obj\stm32f4xx_sdio.o
 .debug_aranges
                0x00000240       0x50 ..\obj\usbd_usr.o
 .debug_aranges
                0x00000290       0x28 ..\obj\startup_stm32f4xx.o
 .debug_aranges
                0x000002b8       0x48 ..\obj\usbd_msc_core.o
 .debug_aranges
                0x00000300       0x98 ..\obj\usbd_core.o
 .debug_aranges
                0x00000398       0x20 ..\obj\main.o
 .debug_aranges
                0x000003b8      0x178 ..\obj\stm32f4xx_rcc.o
 .debug_aranges
                0x00000530       0x50 ..\obj\usbd_storage_msd.o
 .debug_aranges
                0x00000580       0x98 ..\obj\usbd_msc_scsi.o
 .debug_aranges
                0x00000618       0x50 ..\obj\usbd_desc.o
 .debug_aranges
                0x00000668       0x38 ..\obj\konfiguracja.o
 .debug_aranges
                0x000006a0       0x88 ..\obj\stm32f4xx_gpio.o
 .debug_aranges
                0x00000728       0x30 ..\obj\system_stm32f4xx.o
 .debug_aranges
                0x00000758       0xb0 ..\obj\stm32f4xx_dma.o
 .debug_aranges
                0x00000808       0x38 ..\obj\usb_bsp.o
 .debug_aranges
                0x00000840       0x90 ..\obj\usbd_req.o
 .debug_aranges
                0x000008d0       0x90 ..\obj\usb_dcd_int.o
 .debug_aranges
                0x00000960       0x18 ..\obj\usbd_msc_data.o
 .debug_aranges
                0x00000978      0x138 ..\obj\stm324xg_eval_sdio_sd.o
 .debug_aranges
                0x00000ab0       0x40 ..\obj\misc.o
 .debug_aranges
                0x00000af0       0x80 ..\obj\usb_dcd.o
 .debug_aranges
                0x00000b70       0x70 ..\obj\stm32fxxx_it.o
 .debug_aranges
                0x00000be0       0x50 ..\obj\usbd_ioreq.o
 .debug_aranges
                0x00000c30       0x68 ..\obj\usbd_msc_bot.o

.debug_ranges   0x00000000      0xb00
 .debug_ranges  0x00000000      0x128 ..\obj\usb_core.o
 .debug_ranges  0x00000128       0xf8 ..\obj\stm32f4xx_sdio.o
 .debug_ranges  0x00000220       0x40 ..\obj\usbd_usr.o
 .debug_ranges  0x00000260       0x18 ..\obj\startup_stm32f4xx.o
 .debug_ranges  0x00000278       0x38 ..\obj\usbd_msc_core.o
 .debug_ranges  0x000002b0       0x88 ..\obj\usbd_core.o
 .debug_ranges  0x00000338       0x10 ..\obj\main.o
 .debug_ranges  0x00000348      0x168 ..\obj\stm32f4xx_rcc.o
 .debug_ranges  0x000004b0       0x40 ..\obj\usbd_storage_msd.o
 .debug_ranges  0x000004f0       0x88 ..\obj\usbd_msc_scsi.o
 .debug_ranges  0x00000578       0x40 ..\obj\usbd_desc.o
 .debug_ranges  0x000005b8       0x28 ..\obj\konfiguracja.o
 .debug_ranges  0x000005e0       0x78 ..\obj\stm32f4xx_gpio.o
 .debug_ranges  0x00000658       0x20 ..\obj\system_stm32f4xx.o
 .debug_ranges  0x00000678       0xa0 ..\obj\stm32f4xx_dma.o
 .debug_ranges  0x00000718       0x28 ..\obj\usb_bsp.o
 .debug_ranges  0x00000740       0x80 ..\obj\usbd_req.o
 .debug_ranges  0x000007c0       0x80 ..\obj\usb_dcd_int.o
 .debug_ranges  0x00000840      0x128 ..\obj\stm324xg_eval_sdio_sd.o
 .debug_ranges  0x00000968       0x30 ..\obj\misc.o
 .debug_ranges  0x00000998       0x70 ..\obj\usb_dcd.o
 .debug_ranges  0x00000a08       0x60 ..\obj\stm32fxxx_it.o
 .debug_ranges  0x00000a68       0x40 ..\obj\usbd_ioreq.o
 .debug_ranges  0x00000aa8       0x58 ..\obj\usbd_msc_bot.o

.debug_line     0x00000000     0x4651
 .debug_line    0x00000000      0x63f ..\obj\usb_core.o
 .debug_line    0x0000063f      0x3d8 ..\obj\stm32f4xx_sdio.o
 .debug_line    0x00000a17      0x16b ..\obj\usbd_usr.o
 .debug_line    0x00000b82       0x9e ..\obj\startup_stm32f4xx.o
 .debug_line    0x00000c20      0x1db ..\obj\usbd_msc_core.o
 .debug_line    0x00000dfb      0x2d8 ..\obj\usbd_core.o
 .debug_line    0x000010d3      0x17a ..\obj\main.o
 .debug_line    0x0000124d      0x52e ..\obj\stm32f4xx_rcc.o
 .debug_line    0x0000177b      0x264 ..\obj\usbd_storage_msd.o
 .debug_line    0x000019df      0x35d ..\obj\usbd_msc_scsi.o
 .debug_line    0x00001d3c      0x191 ..\obj\usbd_desc.o
 .debug_line    0x00001ecd      0x217 ..\obj\konfiguracja.o
 .debug_line    0x000020e4      0x2d3 ..\obj\stm32f4xx_gpio.o
 .debug_line    0x000023b7      0x183 ..\obj\system_stm32f4xx.o
 .debug_line    0x0000253a      0x370 ..\obj\stm32f4xx_dma.o
 .debug_line    0x000028aa      0x202 ..\obj\usb_bsp.o
 .debug_line    0x00002aac      0x364 ..\obj\usbd_req.o
 .debug_line    0x00002e10      0x368 ..\obj\usb_dcd_int.o
 .debug_line    0x00003178       0xeb ..\obj\usbd_msc_data.o
 .debug_line    0x00003263      0x99f ..\obj\stm324xg_eval_sdio_sd.o
 .debug_line    0x00003c02      0x1d9 ..\obj\misc.o
 .debug_line    0x00003ddb      0x2bd ..\obj\usb_dcd.o
 .debug_line    0x00004098      0x1d2 ..\obj\stm32fxxx_it.o
 .debug_line    0x0000426a      0x1a7 ..\obj\usbd_ioreq.o
 .debug_line    0x00004411      0x240 ..\obj\usbd_msc_bot.o

.debug_str      0x00000000     0x4c69
 .debug_str     0x00000000     0x1388 ..\obj\usb_core.o
                               0x16a0 (size before relaxing)
 .debug_str     0x00001388      0x4ca ..\obj\stm32f4xx_sdio.o
                                0x61d (size before relaxing)
 .debug_str     0x00001852      0x114 ..\obj\usbd_usr.o
                                0x2d4 (size before relaxing)
 .debug_str     0x00001966       0xb7 ..\obj\startup_stm32f4xx.o
                                0x14e (size before relaxing)
 .debug_str     0x00001a1d      0x142 ..\obj\usbd_msc_core.o
                                0x39f (size before relaxing)
 .debug_str     0x00001b5f      0x187 ..\obj\usbd_core.o
                                0xbdf (size before relaxing)
 .debug_str     0x00001ce6       0x45 ..\obj\main.o
                                0x97d (size before relaxing)
 .debug_str     0x00001d2b      0x65d ..\obj\stm32f4xx_rcc.o
                                0x822 (size before relaxing)
 .debug_str     0x00002388      0x92c ..\obj\usbd_storage_msd.o
                                0xb3a (size before relaxing)
 .debug_str     0x00002cb4      0x312 ..\obj\usbd_msc_scsi.o
                                0xcae (size before relaxing)
 .debug_str     0x00002fc6      0x14c ..\obj\usbd_desc.o
                                0x3ba (size before relaxing)
 .debug_str     0x00003112      0x36c ..\obj\konfiguracja.o
                                0x4be (size before relaxing)
 .debug_str     0x0000347e      0x19f ..\obj\stm32f4xx_gpio.o
                                0x475 (size before relaxing)
 .debug_str     0x0000361d      0x109 ..\obj\system_stm32f4xx.o
                                0x37c (size before relaxing)
 .debug_str     0x00003726      0x26a ..\obj\stm32f4xx_dma.o
                                0x51e (size before relaxing)
 .debug_str     0x00003990       0x95 ..\obj\usb_bsp.o
                               0x10dc (size before relaxing)
 .debug_str     0x00003a25      0x16d ..\obj\usbd_req.o
                                0xb54 (size before relaxing)
 .debug_str     0x00003b92      0x350 ..\obj\usb_dcd_int.o
                               0x13f0 (size before relaxing)
 .debug_str     0x00003ee2       0x38 ..\obj\usbd_msc_data.o
                                0x1aa (size before relaxing)
 .debug_str     0x00003f1a      0x85c ..\obj\stm324xg_eval_sdio_sd.o
                                0xf11 (size before relaxing)
 .debug_str     0x00004776      0x158 ..\obj\misc.o
                                0x3ab (size before relaxing)
 .debug_str     0x000048ce      0x103 ..\obj\usb_dcd.o
                                0xb68 (size before relaxing)
 .debug_str     0x000049d1       0xe9 ..\obj\stm32fxxx_it.o
                                0x9f4 (size before relaxing)
 .debug_str     0x00004aba       0xbd ..\obj\usbd_ioreq.o
                                0x9f4 (size before relaxing)
 .debug_str     0x00004b77       0xf2 ..\obj\usbd_msc_bot.o
                                0xb50 (size before relaxing)

.comment        0x00000000       0x70
 .comment       0x00000000       0x70 ..\obj\usb_core.o
                                 0x71 (size before relaxing)
 .comment       0x00000000       0x71 ..\obj\stm32f4xx_sdio.o
 .comment       0x00000000       0x71 ..\obj\usbd_usr.o
 .comment       0x00000000       0x71 ..\obj\startup_stm32f4xx.o
 .comment       0x00000000       0x71 ..\obj\usbd_msc_core.o
 .comment       0x00000000       0x71 ..\obj\usbd_core.o
 .comment       0x00000000       0x71 ..\obj\main.o
 .comment       0x00000000       0x71 ..\obj\stm32f4xx_rcc.o
 .comment       0x00000000       0x71 ..\obj\usbd_storage_msd.o
 .comment       0x00000000       0x71 ..\obj\usbd_msc_scsi.o
 .comment       0x00000000       0x71 ..\obj\usbd_desc.o
 .comment       0x00000000       0x71 ..\obj\konfiguracja.o
 .comment       0x00000000       0x71 ..\obj\stm32f4xx_gpio.o
 .comment       0x00000000       0x71 ..\obj\system_stm32f4xx.o
 .comment       0x00000000       0x71 ..\obj\stm32f4xx_dma.o
 .comment       0x00000000       0x71 ..\obj\usb_bsp.o
 .comment       0x00000000       0x71 ..\obj\usbd_req.o
 .comment       0x00000000       0x71 ..\obj\usb_dcd_int.o
 .comment       0x00000000       0x71 ..\obj\usbd_msc_data.o
 .comment       0x00000000       0x71 ..\obj\stm324xg_eval_sdio_sd.o
 .comment       0x00000000       0x71 ..\obj\misc.o
 .comment       0x00000000       0x71 ..\obj\usb_dcd.o
 .comment       0x00000000       0x71 ..\obj\stm32fxxx_it.o
 .comment       0x00000000       0x71 ..\obj\usbd_ioreq.o
 .comment       0x00000000       0x71 ..\obj\usbd_msc_bot.o

.ARM.attributes
                0x00000000       0x33
 .ARM.attributes
                0x00000000       0x33 ..\obj\usb_core.o
 .ARM.attributes
                0x00000033       0x33 ..\obj\stm32f4xx_sdio.o
 .ARM.attributes
                0x00000066       0x33 ..\obj\usbd_usr.o
 .ARM.attributes
                0x00000099       0x33 ..\obj\startup_stm32f4xx.o
 .ARM.attributes
                0x000000cc       0x33 ..\obj\usbd_msc_core.o
 .ARM.attributes
                0x000000ff       0x33 ..\obj\usbd_core.o
 .ARM.attributes
                0x00000132       0x33 ..\obj\main.o
 .ARM.attributes
                0x00000165       0x33 ..\obj\stm32f4xx_rcc.o
 .ARM.attributes
                0x00000198       0x33 ..\obj\usbd_storage_msd.o
 .ARM.attributes
                0x000001cb       0x33 ..\obj\usbd_msc_scsi.o
 .ARM.attributes
                0x000001fe       0x33 ..\obj\usbd_desc.o
 .ARM.attributes
                0x00000231       0x33 ..\obj\konfiguracja.o
 .ARM.attributes
                0x00000264       0x33 ..\obj\stm32f4xx_gpio.o
 .ARM.attributes
                0x00000297       0x33 ..\obj\system_stm32f4xx.o
 .ARM.attributes
                0x000002ca       0x33 ..\obj\stm32f4xx_dma.o
 .ARM.attributes
                0x000002fd       0x33 ..\obj\usb_bsp.o
 .ARM.attributes
                0x00000330       0x33 ..\obj\usbd_req.o
 .ARM.attributes
                0x00000363       0x33 ..\obj\usb_dcd_int.o
 .ARM.attributes
                0x00000396       0x33 ..\obj\usbd_msc_data.o
 .ARM.attributes
                0x000003c9       0x33 ..\obj\stm324xg_eval_sdio_sd.o
 .ARM.attributes
                0x000003fc       0x33 ..\obj\misc.o
 .ARM.attributes
                0x0000042f       0x33 ..\obj\usb_dcd.o
 .ARM.attributes
                0x00000462       0x33 ..\obj\stm32fxxx_it.o
 .ARM.attributes
                0x00000495       0x33 ..\obj\usbd_ioreq.o
 .ARM.attributes
                0x000004c8       0x33 ..\obj\usbd_msc_bot.o

.debug_frame    0x00000000     0x2764
 .debug_frame   0x00000000      0x434 ..\obj\usb_core.o
 .debug_frame   0x00000434      0x344 ..\obj\stm32f4xx_sdio.o
 .debug_frame   0x00000778       0xbc ..\obj\usbd_usr.o
 .debug_frame   0x00000834       0x48 ..\obj\startup_stm32f4xx.o
 .debug_frame   0x0000087c       0xcc ..\obj\usbd_msc_core.o
 .debug_frame   0x00000948      0x208 ..\obj\usbd_core.o
 .debug_frame   0x00000b50       0x30 ..\obj\main.o
 .debug_frame   0x00000b80      0x4d8 ..\obj\stm32f4xx_rcc.o
 .debug_frame   0x00001058       0xe8 ..\obj\usbd_storage_msd.o
 .debug_frame   0x00001140      0x1f8 ..\obj\usbd_msc_scsi.o
 .debug_frame   0x00001338       0xe8 ..\obj\usbd_desc.o
 .debug_frame   0x00001420       0x90 ..\obj\konfiguracja.o
 .debug_frame   0x000014b0      0x19c ..\obj\stm32f4xx_gpio.o
 .debug_frame   0x0000164c       0x64 ..\obj\system_stm32f4xx.o
 .debug_frame   0x000016b0      0x224 ..\obj\stm32f4xx_dma.o
 .debug_frame   0x000018d4       0x8c ..\obj\usb_bsp.o
 .debug_frame   0x00001960      0x1e8 ..\obj\usbd_req.o
 .debug_frame   0x00001b48      0x1ec ..\obj\usb_dcd_int.o
 .debug_frame   0x00001d34      0x490 ..\obj\stm324xg_eval_sdio_sd.o
 .debug_frame   0x000021c4       0x9c ..\obj\misc.o
 .debug_frame   0x00002260      0x1ac ..\obj\usb_dcd.o
 .debug_frame   0x0000240c      0x120 ..\obj\stm32fxxx_it.o
 .debug_frame   0x0000252c       0xec ..\obj\usbd_ioreq.o
 .debug_frame   0x00002618      0x14c ..\obj\usbd_msc_bot.o
